	.file	"unidi.c"
	.text
	.section	.rodata
.LC0:
	.string	"Fix size: "
.LC1:
	.string	"%i"
.LC2:
	.string	"Enter the value %i:\n"
	.align 8
.LC3:
	.string	"The values of the arrangement are: "
.LC4:
	.string	"%i-"
	.text
	.globl	main
	.type	main, @function
main:
.LFB0:
	.cfi_startproc
	pushq	%rbp
	.cfi_def_cfa_offset 16
	.cfi_offset 6, -16
	movq	%rsp, %rbp
	.cfi_def_cfa_register 6
	pushq	%r15
	pushq	%r14
	pushq	%r13
	pushq	%r12
	pushq	%rbx
	subq	$40, %rsp
	.cfi_offset 15, -24
	.cfi_offset 14, -32
	.cfi_offset 13, -40
	.cfi_offset 12, -48
	.cfi_offset 3, -56
	movq	%rsp, %rax
	movq	%rax, %rbx
	movl	$.LC0, %edi
	call	puts
	leaq	-76(%rbp), %rax
	movq	%rax, %rsi
	movl	$.LC1, %edi
	movl	$0, %eax
	call	__isoc99_scanf
	movl	-76(%rbp), %eax
	movslq	%eax, %rdx
	subq	$1, %rdx
	movq	%rdx, -64(%rbp)
	movslq	%eax, %rdx
	movq	%rdx, %r14
	movl	$0, %r15d
	movslq	%eax, %rdx
	movq	%rdx, %r12
	movl	$0, %r13d
	cltq
	leaq	0(,%rax,4), %rdx
	movl	$16, %eax
	subq	$1, %rax
	addq	%rdx, %rax
	movl	$16, %ecx
	movl	$0, %edx
	divq	%rcx
	imulq	$16, %rax, %rax
	subq	%rax, %rsp
	movq	%rsp, %rax
	addq	$3, %rax
	shrq	$2, %rax
	salq	$2, %rax
	movq	%rax, -72(%rbp)
	movl	$0, -56(%rbp)
	jmp	.L2
.L3:
	movl	-56(%rbp), %eax
	addl	$1, %eax
	movl	%eax, %esi
	movl	$.LC2, %edi
	movl	$0, %eax
	call	printf
	movl	-56(%rbp), %eax
	cltq
	leaq	0(,%rax,4), %rdx
	movq	-72(%rbp), %rax
	addq	%rdx, %rax
	movq	%rax, %rsi
	movl	$.LC1, %edi
	movl	$0, %eax
	call	__isoc99_scanf
	addl	$1, -56(%rbp)
.L2:
	movl	-76(%rbp), %eax
	cmpl	%eax, -56(%rbp)
	jl	.L3
	movl	$.LC3, %edi
	call	puts
	movl	$0, -52(%rbp)
	jmp	.L4
.L5:
	movq	-72(%rbp), %rax
	movl	-52(%rbp), %edx
	movslq	%edx, %rdx
	movl	(%rax,%rdx,4), %eax
	movl	%eax, %esi
	movl	$.LC4, %edi
	movl	$0, %eax
	call	printf
	addl	$1, -52(%rbp)
.L4:
	movl	-76(%rbp), %eax
	cmpl	%eax, -52(%rbp)
	jl	.L5
	movl	$10, %edi
	call	putchar
	movl	$0, %eax
	movq	%rbx, %rsp
	leaq	-40(%rbp), %rsp
	popq	%rbx
	popq	%r12
	popq	%r13
	popq	%r14
	popq	%r15
	popq	%rbp
	.cfi_def_cfa 7, 8
	ret
	.cfi_endproc
.LFE0:
	.size	main, .-main
	.ident	"GCC: (GNU) 11.0.1 20210324 (Red Hat 11.0.1-0)"
	.section	.note.GNU-stack,"",@progbits
