	.file	"return.c"
	.text
	.globl	num3
	.data
	.align 4
	.type	num3, @object
	.size	num3, 4
num3:
	.long	5
	.section	.rodata
.LC0:
	.string	"Enter the firts value: "
.LC1:
	.string	"%i"
.LC2:
	.string	"Enter the second value:"
.LC3:
	.string	"El resultado es: %i\n"
	.text
	.globl	main
	.type	main, @function
main:
.LFB0:
	.cfi_startproc
	pushq	%rbp
	.cfi_def_cfa_offset 16
	.cfi_offset 6, -16
	movq	%rsp, %rbp
	.cfi_def_cfa_register 6
	subq	$16, %rsp
	leaq	.LC0(%rip), %rdi
	call	puts@PLT
	leaq	-4(%rbp), %rax
	movq	%rax, %rsi
	leaq	.LC1(%rip), %rdi
	movl	$0, %eax
	call	__isoc99_scanf@PLT
	leaq	.LC2(%rip), %rdi
	call	puts@PLT
	leaq	-8(%rbp), %rax
	movq	%rax, %rsi
	leaq	.LC1(%rip), %rdi
	movl	$0, %eax
	call	__isoc99_scanf@PLT
	movl	-8(%rbp), %edx
	movl	-4(%rbp), %eax
	movl	%edx, %esi
	movl	%eax, %edi
	movl	$0, %eax
	call	sum
	movl	%eax, %esi
	leaq	.LC3(%rip), %rdi
	movl	$0, %eax
	call	printf@PLT
	movl	$0, %eax
	leave
	.cfi_def_cfa 7, 8
	ret
	.cfi_endproc
.LFE0:
	.size	main, .-main
	.globl	sum
	.type	sum, @function
sum:
.LFB1:
	.cfi_startproc
	pushq	%rbp
	.cfi_def_cfa_offset 16
	.cfi_offset 6, -16
	movq	%rsp, %rbp
	.cfi_def_cfa_register 6
	movl	%edi, -20(%rbp)
	movl	%esi, -24(%rbp)
	movl	-20(%rbp), %edx
	movl	-24(%rbp), %eax
	addl	%eax, %edx
	movl	num3(%rip), %eax
	addl	%edx, %eax
	movl	%eax, -4(%rbp)
	movl	-4(%rbp), %eax
	popq	%rbp
	.cfi_def_cfa 7, 8
	ret
	.cfi_endproc
.LFE1:
	.size	sum, .-sum
	.ident	"GCC: (Debian 8.3.0-6) 8.3.0"
	.section	.note.GNU-stack,"",@progbits
